Certificate:
    Data:
        Version: 3 (0x2)
        Serial Number:
            c0:88:8d:b6:29:ba:82:57:6e:9c:da:69:1b:55:be:d3
    Signature Algorithm: sha256WithRSAEncryption
        Issuer: C=CN, O=Openssl-Code-Org, CN=Openssl-Code-Root-CA
        Validity
            Not Before: Sep  2 08:55:50 2015 GMT
            Not After : Aug 30 08:55:50 2025 GMT
        Subject: C=CN, O=Openssl-Code-Org, CN=Openssl-Code-Signing-CA
        Subject Public Key Info:
            Public Key Algorithm: rsaEncryption
                Public-Key: (4096 bit)
                Modulus:
                    00:d1:78:21:66:b4:5a:24:9c:ef:84:ac:56:b6:72:
                    2c:f4:1a:76:b3:a9:0e:92:b8:d8:29:cf:25:a4:84:
                    7c:9d:a3:48:1a:c0:65:91:f0:94:04:41:84:63:61:
                    1c:6f:b3:43:b9:23:b2:03:ab:9c:c5:7b:d7:07:66:
                    f7:6e:94:31:5e:f9:9a:69:42:fd:1c:a4:7b:42:ab:
                    67:31:c4:21:dc:9e:ca:8a:fa:50:3a:df:ac:4a:27:
                    4f:14:1e:e4:57:70:61:f6:5d:a2:85:92:2e:b5:36:
                    d9:af:32:38:a5:4e:19:38:e5:bb:89:35:36:77:ef:
                    e8:ae:e4:ce:b4:10:38:16:c8:0e:71:90:e8:1b:69:
                    c0:f7:14:d8:2a:fc:7f:3f:21:19:ad:2d:83:62:27:
                    8f:bb:5b:52:c7:ef:25:90:a0:3e:32:fe:23:5d:2f:
                    f3:5b:a0:48:b0:19:b1:e4:32:ab:a4:b8:7d:86:49:
                    5a:8f:58:d0:d6:de:c6:05:3a:73:83:b3:9f:85:9c:
                    3e:08:12:97:e9:6b:4c:fc:d6:72:67:ea:a3:b9:ae:
                    70:f0:64:e5:0d:7d:09:c2:92:a4:b9:f6:94:5b:a6:
                    b6:6d:e0:f1:de:07:2c:b1:5a:85:fe:8f:56:64:61:
                    00:c4:8f:01:61:88:e0:da:90:f9:f4:51:2a:4c:80:
                    b7:ed:7e:5d:ff:ec:05:4d:b8:de:e4:5f:72:94:2f:
                    10:86:e0:54:d8:c2:d4:50:a2:34:f0:02:58:41:39:
                    0a:07:08:05:2a:9a:df:be:66:5b:d6:75:98:1d:b3:
                    29:56:e1:e5:31:bd:65:b6:1b:2c:61:9b:55:13:2e:
                    de:77:ad:04:7f:e6:ab:e3:f4:c6:ba:80:4c:93:40:
                    65:ad:4d:f5:0b:cd:37:8d:e0:50:d4:d1:0f:0c:49:
                    be:c2:ca:87:4f:2a:1d:d5:a2:de:43:fe:c9:eb:39:
                    5b:ea:31:4d:22:85:d5:85:78:de:60:ed:b5:0e:b9:
                    81:be:01:3d:3c:53:0d:c7:25:78:f4:7d:31:b4:f9:
                    eb:4d:c7:0d:b1:64:a3:1f:6f:37:27:ea:58:04:8f:
                    7b:0a:d7:e6:f6:fc:eb:50:47:c6:e2:b9:86:7b:75:
                    94:5d:2e:d9:f3:31:6a:31:73:d4:c6:53:fd:5f:f5:
                    e3:13:29:36:75:e8:71:73:bb:cc:95:83:e2:c8:0b:
                    11:6b:7c:26:b6:21:aa:46:ea:59:86:c7:8e:5a:5d:
                    f8:c2:1c:a7:3d:59:75:72:04:e2:28:94:07:14:2e:
                    eb:7c:5f:11:0d:dd:d0:df:48:c3:ab:7d:d5:4f:29:
                    36:e0:b4:bc:eb:cd:77:40:01:70:c7:d1:84:ef:d4:
                    05:16:85
                Exponent: 65537 (0x10001)
        X509v3 extensions:
            Authority Information Access: 
                CA Issuers - URI:http://root-ca.root.com/root-ca.crt
                OCSP - URI:http://ocsp.root-ca.root.com:9080

            X509v3 Authority Key Identifier: 
                keyid:26:FE:3A:72:F1:EA:41:13:83:E1:1C:DA:9E:6E:20:DD:9E:A0:A0:E5

            X509v3 Basic Constraints: critical
                CA:TRUE, pathlen:0
            X509v3 CRL Distribution Points: 

                Full Name:
                  URI:http://root-ca.root.com/root-ca.crl

            X509v3 Extended Key Usage: 
                TLS Web Client Authentication, TLS Web Server Authentication
            X509v3 Key Usage: critical
                Certificate Sign, CRL Sign
            X509v3 Name Constraints: 
                Permitted:
                  DNS:example.com
                  DNS:example.org
                Excluded:
                  IP:0.0.0.0/0.0.0.0
                  IP:0:0:0:0:0:0:0:0/0:0:0:0:0:0:0:0

            X509v3 Subject Key Identifier: 
                AB:48:2C:F3:B2:B0:1E:A8:C8:0B:4E:02:CB:E4:53:2F:CC:46:6A:2C
    Signature Algorithm: sha256WithRSAEncryption
         89:63:da:7b:9b:7e:00:46:73:45:af:06:53:67:45:ea:52:e5:
         ed:73:7f:9b:1e:4a:9a:5a:3a:d2:1c:d8:50:63:4a:90:a0:fc:
         b7:71:8a:57:08:1c:4e:d3:9d:5f:c2:c3:8c:d2:8c:72:93:23:
         e1:dd:34:af:b7:5a:b3:cb:50:ef:0d:18:30:88:04:05:91:ed:
         ea:9e:1b:95:70:c2:a7:0f:60:bf:e2:2e:30:02:89:75:89:4b:
         63:0b:9d:90:14:f0:58:a2:07:cd:60:89:f0:bd:91:ce:eb:65:
         eb:f9:01:4a:e7:ca:29:b9:c4:e0:1c:7c:05:06:0d:80:b9:be:
         47:c6:2d:1c:e5:3a:32:bd:f9:6a:bb:2d:b1:ae:8a:89:12:85:
         f6:5a:23:f5:d9:a1:f9:f9:20:4a:8c:d2:34:4b:4a:dc:3f:b0:
         a5:16:db:40:a0:40:ef:32:68:f0:d2:af:ff:f8:99:ba:4b:ef:
         a5:42:5e:9c:98:77:59:d9:2f:a0:35:e4:66:eb:ee:b2:ae:6d:
         d1:e0:c9:0b:3f:52:e9:f4:74:fa:82:93:96:d3:7b:e0:a6:4e:
         d8:8b:7f:79:49:ab:aa:74:52:0c:a9:99:fb:e0:b8:c0:32:6e:
         8e:2a:28:5e:eb:4a:90:94:42:06:a9:f6:f6:80:7a:cc:7d:18:
         f8:4a:9f:e1:f4:56:ef:c5:54:24:0d:c3:98:60:a0:cc:34:4e:
         1e:aa:b1:56:cf:04:4c:ff:13:b4:1a:0b:31:1a:44:51:29:a9:
         75:9c:01:4c:9a:11:53:e1:2d:44:e4:86:8f:9f:18:73:7a:3f:
         b9:b2:e7:27:2a:0a:80:d0:76:16:96:40:7c:ce:06:00:e8:42:
         6c:b2:a2:a9:7b:51:17:80:1a:72:cf:f0:84:1a:0c:4f:c7:95:
         1b:ae:cf:f8:a8:dc:c2:03:a0:73:9a:99:53:a3:88:56:34:52:
         de:60:22:04:e8:46:42:15:cc:db:13:54:3a:11:e4:68:1e:e4:
         35:a3:74:3f:b7:09:77:97:70:3d:fb:4f:d8:4c:93:8c:de:af:
         29:de:a9:e7:55:09:5b:b3:83:b0:c7:80:0e:4f:e2:45:7a:e8:
         d3:f5:0d:ef:a7:02:34:b0:11:2f:20:52:51:27:91:10:8a:6d:
         14:08:90:8b:f8:fa:67:fd:a4:6b:fd:9b:c2:d7:ae:9d:90:35:
         c8:7d:f7:ad:18:d0:81:45:d7:11:2f:7e:d7:32:52:b2:1a:60:
         f8:c5:d7:e4:3e:1f:aa:55:6d:1d:3c:1e:83:30:54:1a:8e:f6:
         f0:05:fd:11:94:3c:7f:3c:f4:a9:69:12:48:12:42:7e:1a:01:
         04:ae:90:53:a4:11:fa:52
-----BEGIN CERTIFICATE-----
MIIGqDCCBJCgAwIBAgIRAMCIjbYpuoJXbpzaaRtVvtMwDQYJKoZIhvcNAQELBQAw
RzELMAkGA1UEBhMCQ04xGTAXBgNVBAoMEE9wZW5zc2wtQ29kZS1PcmcxHTAbBgNV
BAMMFE9wZW5zc2wtQ29kZS1Sb290LUNBMB4XDTE1MDkwMjA4NTU1MFoXDTI1MDgz
MDA4NTU1MFowSjELMAkGA1UEBhMCQ04xGTAXBgNVBAoMEE9wZW5zc2wtQ29kZS1P
cmcxIDAeBgNVBAMMF09wZW5zc2wtQ29kZS1TaWduaW5nLUNBMIICIjANBgkqhkiG
9w0BAQEFAAOCAg8AMIICCgKCAgEA0XghZrRaJJzvhKxWtnIs9Bp2s6kOkrjYKc8l
pIR8naNIGsBlkfCUBEGEY2Ecb7NDuSOyA6ucxXvXB2b3bpQxXvmaaUL9HKR7Qqtn
McQh3J7KivpQOt+sSidPFB7kV3Bh9l2ihZIutTbZrzI4pU4ZOOW7iTU2d+/oruTO
tBA4FsgOcZDoG2nA9xTYKvx/PyEZrS2DYiePu1tSx+8lkKA+Mv4jXS/zW6BIsBmx
5DKrpLh9hklaj1jQ1t7GBTpzg7OfhZw+CBKX6WtM/NZyZ+qjua5w8GTlDX0JwpKk
ufaUW6a2beDx3gcssVqF/o9WZGEAxI8BYYjg2pD59FEqTIC37X5d/+wFTbje5F9y
lC8QhuBU2MLUUKI08AJYQTkKBwgFKprfvmZb1nWYHbMpVuHlMb1lthssYZtVEy7e
d60Ef+ar4/TGuoBMk0BlrU31C803jeBQ1NEPDEm+wsqHTyod1aLeQ/7J6zlb6jFN
IoXVhXjeYO21DrmBvgE9PFMNxyV49H0xtPnrTccNsWSjH283J+pYBI97Ctfm9vzr
UEfG4rmGe3WUXS7Z8zFqMXPUxlP9X/XjEyk2dehxc7vMlYPiyAsRa3wmtiGqRupZ
hseOWl34whynPVl1cgTiKJQHFC7rfF8RDd3Q30jDq33VTyk24LS86813QAFwx9GE
79QFFoUCAwEAAaOCAYowggGGMG4GCCsGAQUFBwEBBGIwYDAvBggrBgEFBQcwAoYj
aHR0cDovL3Jvb3QtY2Eucm9vdC5jb20vcm9vdC1jYS5jcnQwLQYIKwYBBQUHMAGG
IWh0dHA6Ly9vY3NwLnJvb3QtY2Eucm9vdC5jb206OTA4MDAfBgNVHSMEGDAWgBQm
/jpy8epBE4PhHNqebiDdnqCg5TASBgNVHRMBAf8ECDAGAQH/AgEAMDQGA1UdHwQt
MCswKaAnoCWGI2h0dHA6Ly9yb290LWNhLnJvb3QuY29tL3Jvb3QtY2EuY3JsMB0G
A1UdJQQWMBQGCCsGAQUFBwMCBggrBgEFBQcDATAOBgNVHQ8BAf8EBAMCAQYwWwYD
VR0eBFQwUqAeMA2CC2V4YW1wbGUuY29tMA2CC2V4YW1wbGUub3JnoTAwCocIAAAA
AAAAAAAwIocgAAAAAAAAAAAAAAAAAAAAAAAAAAAAAAAAAAAAAAAAAAAwHQYDVR0O
BBYEFKtILPOysB6oyAtOAsvkUy/MRmosMA0GCSqGSIb3DQEBCwUAA4ICAQCJY9p7
m34ARnNFrwZTZ0XqUuXtc3+bHkqaWjrSHNhQY0qQoPy3cYpXCBxO051fwsOM0oxy
kyPh3TSvt1qzy1DvDRgwiAQFke3qnhuVcMKnD2C/4i4wAol1iUtjC52QFPBYogfN
YInwvZHO62Xr+QFK58opucTgHHwFBg2Aub5Hxi0c5Toyvflquy2xroqJEoX2WiP1
2aH5+SBKjNI0S0rcP7ClFttAoEDvMmjw0q//+Jm6S++lQl6cmHdZ2S+gNeRm6+6y
rm3R4MkLP1Lp9HT6gpOW03vgpk7Yi395SauqdFIMqZn74LjAMm6OKihe60qQlEIG
qfb2gHrMfRj4Sp/h9FbvxVQkDcOYYKDMNE4eqrFWzwRM/xO0GgsxGkRRKal1nAFM
mhFT4S1E5IaPnxhzej+5sucnKgqA0HYWlkB8zgYA6EJssqKpe1EXgBpyz/CEGgxP
x5Ubrs/4qNzCA6BzmplTo4hWNFLeYCIE6EZCFczbE1Q6EeRoHuQ1o3Q/twl3l3A9
+0/YTJOM3q8p3qnnVQlbs4Owx4AOT+JFeujT9Q3vpwI0sBEvIFJRJ5EQim0UCJCL
+Ppn/aRr/ZvC166dkDXIffetGNCBRdcRL37XMlKyGmD4xdfkPh+qVW0dPB6DMFQa
jvbwBf0RlDx/PPSpaRJIEkJ+GgEErpBTpBH6Ug==
-----END CERTIFICATE-----
